target datalayout = "e-m:e-p270:32:32-p271:32:32-p272:64:64-i64:64-i128:128-f80:128-n8:16:32:64-S128"
target triple = "x86_64-pc-linux-gnu"

%struct.hwloc_ps_process = type { i64, [64 x i8], [1024 x i8], ptr, i64, i32, i32, i32, ptr }
%struct.hwloc_ps_thread = type { i64, ptr, i32, [16 x i8] }

@only_uid = internal global i64 0, align 8
@only_pid = internal global i64 -1, align 8
@children_of_pid = internal global i64 -1, align 8
@only_name = internal global ptr null, align 8
@lstopo_misc_output = internal global ptr null, align 8
@json_output = internal global ptr null, align 8

; Function Attrs: nounwind uwtable
define internal void @print_process(ptr noundef %0, ptr noundef %1) #0 {
  %3 = alloca ptr, align 8
  %4 = alloca ptr, align 8
  %5 = alloca i32, align 4
  store ptr %0, ptr %3, align 8, !tbaa !19
  store ptr %1, ptr %4, align 8, !tbaa !51
  call void @llvm.lifetime.start.p0(i64 4, ptr %5) #9
  %6 = load ptr, ptr %3, align 8, !tbaa !19
  %7 = load ptr, ptr %4, align 8, !tbaa !51
  %8 = getelementptr inbounds nuw %struct.hwloc_ps_process, ptr %7, i32 0, i32 0
  %9 = load i64, ptr %8, align 8, !tbaa !42
  %10 = load ptr, ptr %4, align 8, !tbaa !51
  %11 = getelementptr inbounds nuw %struct.hwloc_ps_process, ptr %10, i32 0, i32 1
  %12 = getelementptr inbounds [64 x i8], ptr %11, i64 0, i64 0
  %13 = load ptr, ptr %4, align 8, !tbaa !51
  %14 = getelementptr inbounds nuw %struct.hwloc_ps_process, ptr %13, i32 0, i32 3
  %15 = load ptr, ptr %14, align 8, !tbaa !46
  %16 = load ptr, ptr %4, align 8, !tbaa !51
  %17 = getelementptr inbounds nuw %struct.hwloc_ps_process, ptr %16, i32 0, i32 2
  %18 = getelementptr inbounds [1024 x i8], ptr %17, i64 0, i64 0
  %19 = load i8, ptr %18, align 8, !tbaa !40
  %20 = sext i8 %19 to i32
  %21 = icmp eq i32 %20, 0
  br i1 %21, label %22, label %23

22:                                               ; preds = %2
  br label %27

23:                                               ; preds = %2
  %24 = load ptr, ptr %4, align 8, !tbaa !51
  %25 = getelementptr inbounds nuw %struct.hwloc_ps_process, ptr %24, i32 0, i32 2
  %26 = getelementptr inbounds [1024 x i8], ptr %25, i64 0, i64 0
  br label %27

27:                                               ; preds = %23, %22
  %28 = phi ptr [ null, %22 ], [ %26, %23 ]
  call void @print_task(ptr noundef %6, i64 noundef %9, ptr noundef %12, ptr noundef %15, ptr noundef %28, i32 noundef 0)
  %29 = load ptr, ptr %4, align 8, !tbaa !51
  %30 = getelementptr inbounds nuw %struct.hwloc_ps_process, ptr %29, i32 0, i32 6
  %31 = load i32, ptr %30, align 4, !tbaa !47
  %32 = icmp ne i32 %31, 0
  br i1 %32, label %33, label %81

33:                                               ; preds = %27
  store i32 0, ptr %5, align 4, !tbaa !11
  br label %34

34:                                               ; preds = %77, %33
  %35 = load i32, ptr %5, align 4, !tbaa !11
  %36 = load ptr, ptr %4, align 8, !tbaa !51
  %37 = getelementptr inbounds nuw %struct.hwloc_ps_process, ptr %36, i32 0, i32 6
  %38 = load i32, ptr %37, align 4, !tbaa !47
  %39 = icmp ult i32 %35, %38
  br i1 %39, label %40, label %80

40:                                               ; preds = %34
  %41 = load ptr, ptr %4, align 8, !tbaa !51
  %42 = getelementptr inbounds nuw %struct.hwloc_ps_process, ptr %41, i32 0, i32 8
  %43 = load ptr, ptr %42, align 8, !tbaa !49
  %44 = load i32, ptr %5, align 4, !tbaa !11
  %45 = zext i32 %44 to i64
  %46 = getelementptr inbounds nuw %struct.hwloc_ps_thread, ptr %43, i64 %45
  %47 = getelementptr inbounds nuw %struct.hwloc_ps_thread, ptr %46, i32 0, i32 1
  %48 = load ptr, ptr %47, align 8, !tbaa !67
  %49 = icmp ne ptr %48, null
  br i1 %49, label %50, label %76

50:                                               ; preds = %40
  %51 = load ptr, ptr %3, align 8, !tbaa !19
  %52 = load ptr, ptr %4, align 8, !tbaa !51
  %53 = getelementptr inbounds nuw %struct.hwloc_ps_process, ptr %52, i32 0, i32 8
  %54 = load ptr, ptr %53, align 8, !tbaa !49
  %55 = load i32, ptr %5, align 4, !tbaa !11
  %56 = zext i32 %55 to i64
  %57 = getelementptr inbounds nuw %struct.hwloc_ps_thread, ptr %54, i64 %56
  %58 = getelementptr inbounds nuw %struct.hwloc_ps_thread, ptr %57, i32 0, i32 0
  %59 = load i64, ptr %58, align 8, !tbaa !70
  %60 = load ptr, ptr %4, align 8, !tbaa !51
  %61 = getelementptr inbounds nuw %struct.hwloc_ps_process, ptr %60, i32 0, i32 8
  %62 = load ptr, ptr %61, align 8, !tbaa !49
  %63 = load i32, ptr %5, align 4, !tbaa !11
  %64 = zext i32 %63 to i64
  %65 = getelementptr inbounds nuw %struct.hwloc_ps_thread, ptr %62, i64 %64
  %66 = getelementptr inbounds nuw %struct.hwloc_ps_thread, ptr %65, i32 0, i32 3
  %67 = getelementptr inbounds [16 x i8], ptr %66, i64 0, i64 0
  %68 = load ptr, ptr %4, align 8, !tbaa !51
  %69 = getelementptr inbounds nuw %struct.hwloc_ps_process, ptr %68, i32 0, i32 8
  %70 = load ptr, ptr %69, align 8, !tbaa !49
  %71 = load i32, ptr %5, align 4, !tbaa !11
  %72 = zext i32 %71 to i64
  %73 = getelementptr inbounds nuw %struct.hwloc_ps_thread, ptr %70, i64 %72
  %74 = getelementptr inbounds nuw %struct.hwloc_ps_thread, ptr %73, i32 0, i32 1
  %75 = load ptr, ptr %74, align 8, !tbaa !67
  call void @print_task(ptr noundef %51, i64 noundef %59, ptr noundef %67, ptr noundef %75, ptr noundef null, i32 noundef 1)
  br label %76

76:                                               ; preds = %50, %40
  br label %77

77:                                               ; preds = %76
  %78 = load i32, ptr %5, align 4, !tbaa !11
  %79 = add i32 %78, 1
  store i32 %79, ptr %5, align 4, !tbaa !11
  br label %34, !llvm.loop !73

80:                                               ; preds = %34
  br label %81

81:                                               ; preds = %80, %27
  call void @llvm.lifetime.end.p0(i64 4, ptr %5) #9
  ret void
}

; Function Attrs: nounwind uwtable
define internal i32 @run(ptr noundef %0, ptr noundef %1, i64 noundef %2, ptr noundef %3) #0 {
  %5 = alloca i32, align 4
  %6 = alloca ptr, align 8
  %7 = alloca ptr, align 8
  %8 = alloca i64, align 8
  %9 = alloca ptr, align 8
  %10 = alloca %struct.hwloc_ps_process, align 8
  %11 = alloca i32, align 4
  store ptr %0, ptr %6, align 8, !tbaa !19
  store ptr %1, ptr %7, align 8, !tbaa !32
  store i64 %2, ptr %8, align 8, !tbaa !15
  store ptr %3, ptr %9, align 8, !tbaa !4
  %12 = load i64, ptr @children_of_pid, align 8, !tbaa !15
  %13 = icmp ne i64 %12, -1
  br i1 %13, label %14, label %23

14:                                               ; preds = %4
  %15 = load ptr, ptr %6, align 8, !tbaa !19
  %16 = load ptr, ptr %7, align 8, !tbaa !32
  %17 = load i64, ptr @children_of_pid, align 8, !tbaa !15
  %18 = load ptr, ptr %9, align 8, !tbaa !4
  %19 = load i64, ptr %8, align 8, !tbaa !15
  %20 = load ptr, ptr @only_name, align 8, !tbaa !4
  %21 = load i64, ptr @only_uid, align 8, !tbaa !15
  %22 = call i32 @hwloc_ps_foreach_child(ptr noundef %15, ptr noundef %16, i64 noundef %17, ptr noundef @foreach_process_cb, ptr noundef %18, i64 noundef %19, ptr noundef %20, i64 noundef %21)
  store i32 %22, ptr %5, align 4
  br label %70

23:                                               ; preds = %4
  %24 = load i64, ptr @only_pid, align 8, !tbaa !15
  %25 = icmp eq i64 %24, -1
  br i1 %25, label %26, label %34

26:                                               ; preds = %23
  %27 = load ptr, ptr %6, align 8, !tbaa !19
  %28 = load ptr, ptr %7, align 8, !tbaa !32
  %29 = load ptr, ptr %9, align 8, !tbaa !4
  %30 = load i64, ptr %8, align 8, !tbaa !15
  %31 = load ptr, ptr @only_name, align 8, !tbaa !4
  %32 = load i64, ptr @only_uid, align 8, !tbaa !15
  %33 = call i32 @hwloc_ps_foreach_process(ptr noundef %27, ptr noundef %28, ptr noundef @foreach_process_cb, ptr noundef %29, i64 noundef %30, ptr noundef %31, i64 noundef %32)
  store i32 %33, ptr %5, align 4
  br label %70

34:                                               ; preds = %23
  call void @llvm.lifetime.start.p0(i64 1136, ptr %10) #9
  call void @llvm.lifetime.start.p0(i64 4, ptr %11) #9
  %35 = load i64, ptr @only_pid, align 8, !tbaa !15
  %36 = getelementptr inbounds nuw %struct.hwloc_ps_process, ptr %10, i32 0, i32 0
  store i64 %35, ptr %36, align 8, !tbaa !42
  %37 = load i64, ptr @only_uid, align 8, !tbaa !15
  %38 = getelementptr inbounds nuw %struct.hwloc_ps_process, ptr %10, i32 0, i32 4
  store i64 %37, ptr %38, align 8, !tbaa !45
  %39 = getelementptr inbounds nuw %struct.hwloc_ps_process, ptr %10, i32 0, i32 3
  store ptr null, ptr %39, align 8, !tbaa !46
  %40 = getelementptr inbounds nuw %struct.hwloc_ps_process, ptr %10, i32 0, i32 6
  store i32 0, ptr %40, align 4, !tbaa !47
  %41 = getelementptr inbounds nuw %struct.hwloc_ps_process, ptr %10, i32 0, i32 7
  store i32 0, ptr %41, align 8, !tbaa !48
  %42 = getelementptr inbounds nuw %struct.hwloc_ps_process, ptr %10, i32 0, i32 8
  store ptr null, ptr %42, align 8, !tbaa !49
  %43 = load ptr, ptr %6, align 8, !tbaa !19
  %44 = load ptr, ptr %7, align 8, !tbaa !32
  %45 = load i64, ptr %8, align 8, !tbaa !15
  %46 = call i32 @hwloc_ps_read_process(ptr noundef %43, ptr noundef %44, ptr noundef %10, i64 noundef %45)
  store i32 %46, ptr %11, align 4, !tbaa !11
  %47 = load i32, ptr %11, align 4, !tbaa !11
  %48 = icmp sge i32 %47, 0
  br i1 %48, label %49, label %68

49:                                               ; preds = %34
  %50 = load ptr, ptr %9, align 8, !tbaa !4
  %51 = icmp ne ptr %50, null
  br i1 %51, label %52, label %54

52:                                               ; preds = %49
  %53 = load ptr, ptr %9, align 8, !tbaa !4
  call void @hwloc_ps_pidcmd(ptr noundef %10, ptr noundef %53)
  br label %54

54:                                               ; preds = %52, %49
  %55 = load ptr, ptr @json_output, align 8, !tbaa !9
  %56 = icmp ne ptr %55, null
  br i1 %56, label %57, label %59

57:                                               ; preds = %54
  %58 = load ptr, ptr %6, align 8, !tbaa !19
  call void @print_process_json(ptr noundef %58, ptr noundef %10)
  br label %67

59:                                               ; preds = %54
  %60 = load ptr, ptr @lstopo_misc_output, align 8, !tbaa !9
  %61 = icmp ne ptr %60, null
  br i1 %61, label %62, label %64

62:                                               ; preds = %59
  %63 = load ptr, ptr %6, align 8, !tbaa !19
  call void @print_process_lstopo_misc(ptr noundef %63, ptr noundef %10)
  br label %66

64:                                               ; preds = %59
  %65 = load ptr, ptr %6, align 8, !tbaa !19
  call void @print_process(ptr noundef %65, ptr noundef %10)
  br label %66

66:                                               ; preds = %64, %62
  br label %67

67:                                               ; preds = %66, %57
  br label %68

68:                                               ; preds = %67, %34
  call void @hwloc_ps_free_process(ptr noundef %10)
  %69 = load i32, ptr %11, align 4, !tbaa !11
  store i32 %69, ptr %5, align 4
  call void @llvm.lifetime.end.p0(i64 4, ptr %11) #9
  call void @llvm.lifetime.end.p0(i64 1136, ptr %10) #9
  br label %70

70:                                               ; preds = %68, %26, %14
  %71 = load i32, ptr %5, align 4
  ret i32 %71
}