; Function Attrs: nounwind uwtable
define internal fastcc void @run(ptr noundef %0, ptr noundef %1, i64 noundef %2, ptr noundef %3) unnamed_addr #2 {
  %5 = alloca %struct.hwloc_ps_process, align 8
  %6 = load i64, ptr @children_of_pid, align 8, !tbaa !4
  %.not = icmp eq i64 %6, -1
  br i1 %.not, label %11, label %7

7:                                                ; preds = %4
  %8 = load ptr, ptr @only_name, align 8, !tbaa !8
  %9 = load i64, ptr @only_uid, align 8, !tbaa !4
  %10 = tail call i32 @hwloc_ps_foreach_child(ptr noundef %0, ptr noundef %1, i64 noundef %6, ptr noundef nonnull @foreach_process_cb, ptr noundef %3, i64 noundef %2, ptr noundef %8, i64 noundef %9) #16
  br label %56

11:                                               ; preds = %4
  %12 = load i64, ptr @only_pid, align 8, !tbaa !4
  %13 = icmp eq i64 %12, -1
  br i1 %13, label %14, label %18

14:                                               ; preds = %11
  %15 = load ptr, ptr @only_name, align 8, !tbaa !8
  %16 = load i64, ptr @only_uid, align 8, !tbaa !4
  %17 = tail call i32 @hwloc_ps_foreach_process(ptr noundef %0, ptr noundef %1, ptr noundef nonnull @foreach_process_cb, ptr noundef %3, i64 noundef %2, ptr noundef %15, i64 noundef %16) #16
  br label %56

18:                                               ; preds = %11
  call void @llvm.lifetime.start.p0(i64 1136, ptr nonnull %5) #16
  store i64 %12, ptr %5, align 8, !tbaa !36
  %19 = load i64, ptr @only_uid, align 8, !tbaa !4
  %20 = getelementptr inbounds nuw i8, ptr %5, i64 1104
  store i64 %19, ptr %20, align 8, !tbaa !40
  %21 = getelementptr inbounds nuw i8, ptr %5, i64 1096
  store ptr null, ptr %21, align 8, !tbaa !41
  %22 = getelementptr inbounds nuw i8, ptr %5, i64 1116
  store i32 0, ptr %22, align 4, !tbaa !42
  %23 = getelementptr inbounds nuw i8, ptr %5, i64 1120
  store i32 0, ptr %23, align 8, !tbaa !43
  %24 = getelementptr inbounds nuw i8, ptr %5, i64 1128
  store ptr null, ptr %24, align 8, !tbaa !44
  %25 = call i32 @hwloc_ps_read_process(ptr noundef %0, ptr noundef %1, ptr noundef nonnull %5, i64 noundef %2) #16
  %26 = icmp sgt i32 %25, -1
  br i1 %26, label %27, label %print_process.exit

27:                                               ; preds = %18
  %.not20 = icmp eq ptr %3, null
  br i1 %.not20, label %29, label %28

28:                                               ; preds = %27
  call void @hwloc_ps_pidcmd(ptr noundef nonnull %5, ptr noundef nonnull %3) #16
  br label %29

29:                                               ; preds = %28, %27
  %30 = load ptr, ptr @json_output, align 8, !tbaa !11
  %.not21 = icmp eq ptr %30, null
  br i1 %.not21, label %32, label %31

31:                                               ; preds = %29
  call fastcc void @print_process_json(ptr noundef %0, ptr noundef nonnull %5)
  br label %print_process.exit

32:                                               ; preds = %29
  %33 = load ptr, ptr @lstopo_misc_output, align 8, !tbaa !11
  %.not22 = icmp eq ptr %33, null
  br i1 %.not22, label %35, label %34

34:                                               ; preds = %32
  call fastcc void @print_process_lstopo_misc(ptr noundef nonnull %5)
  br label %print_process.exit

35:                                               ; preds = %32
  %36 = load i64, ptr %5, align 8, !tbaa !36
  %37 = getelementptr inbounds nuw i8, ptr %5, i64 8
  %38 = load ptr, ptr %21, align 8, !tbaa !41
  %39 = getelementptr inbounds nuw i8, ptr %5, i64 72
  %40 = load i8, ptr %39, align 8, !tbaa !34
  %41 = icmp eq i8 %40, 0
  %42 = select i1 %41, ptr null, ptr %39
  call fastcc void @print_task(ptr noundef %0, i64 noundef %36, ptr noundef nonnull %37, ptr noundef %38, ptr noundef %42, i32 noundef 0)
  %43 = load i32, ptr %22, align 4, !tbaa !42
  %.not.i = icmp eq i32 %43, 0
  br i1 %.not.i, label %print_process.exit, label %.lr.ph.i

.lr.ph.i:                                         ; preds = %35, %52
  %44 = phi i32 [ %53, %52 ], [ %43, %35 ]
  %indvars.iv.i = phi i64 [ %indvars.iv.next.i, %52 ], [ 0, %35 ]
  %45 = load ptr, ptr %24, align 8, !tbaa !44
  %46 = getelementptr inbounds nuw %struct.hwloc_ps_thread, ptr %45, i64 %indvars.iv.i
  %47 = getelementptr inbounds nuw i8, ptr %46, i64 8
  %48 = load ptr, ptr %47, align 8, !tbaa !45
  %.not19.i = icmp eq ptr %48, null
  br i1 %.not19.i, label %52, label %49

49:                                               ; preds = %.lr.ph.i
  %50 = load i64, ptr %46, align 8, !tbaa !47
  %51 = getelementptr inbounds nuw i8, ptr %46, i64 20
  call fastcc void @print_task(ptr noundef %0, i64 noundef %50, ptr noundef nonnull %51, ptr noundef nonnull %48, ptr noundef null, i32 noundef 1)
  %.pre.i = load i32, ptr %22, align 4, !tbaa !42
  br label %52

52:                                               ; preds = %49, %.lr.ph.i
  %53 = phi i32 [ %44, %.lr.ph.i ], [ %.pre.i, %49 ]
  %indvars.iv.next.i = add nuw nsw i64 %indvars.iv.i, 1
  %54 = zext i32 %53 to i64
  %55 = icmp samesign ult i64 %indvars.iv.next.i, %54
  br i1 %55, label %.lr.ph.i, label %print_process.exit, !llvm.loop !48

print_process.exit:                               ; preds = %52, %35, %31, %34, %18
  call void @hwloc_ps_free_process(ptr noundef nonnull %5) #16
  call void @llvm.lifetime.end.p0(i64 1136, ptr nonnull %5) #16
  br label %56

56:                                               ; preds = %print_process.exit, %14, %7
  ret void
}